target datalayout = "e-m:e-p270:32:32-p271:32:32-p272:64:64-i64:64-i128:128-f80:128-n8:16:32:64-S128"
target triple = "x86_64-pc-linux-gnu"

%struct.pm_scope_node = type { %struct.pm_node, ptr, ptr, ptr, ptr, %struct.pm_constant_id_list_t, ptr, ptr, ptr, ptr, i32, ptr, ptr, i32, ptr }
%struct.pm_node = type { i16, i16, i32, %struct.pm_location_t }
%struct.pm_location_t = type { ptr, ptr }
%struct.pm_constant_id_list_t = type { i64, i64, ptr }
%struct.pm_parser = type { i32, i32, i32, i32, i32, i32, i32, %struct.anon.23, ptr, ptr, %struct.pm_token_t, %struct.pm_token_t, ptr, ptr, %struct.pm_list_t, %struct.pm_list_t, %struct.pm_location_t, %struct.pm_list_t, %struct.pm_list_t, ptr, ptr, ptr, ptr, ptr, ptr, ptr, %struct.pm_string_t, %struct.pm_constant_pool_t, %struct.pm_newline_list_t, i16, %struct.pm_string_t, i32, ptr, ptr, i32, i8, i8, i8, i8, i8, i8, i8, i8, i8, i8, i8, i8, i8 }
%struct.anon.23 = type { ptr, [4 x %struct.pm_lex_mode], i64 }
%struct.pm_lex_mode = type { i32, %union.anon.24, ptr }
%union.anon.24 = type { %struct.anon.28 }
%struct.anon.28 = type { %struct.pm_heredoc_lex_mode_t, ptr, ptr, i8 }
%struct.pm_heredoc_lex_mode_t = type { ptr, i64, i32, i32 }
%struct.pm_token_t = type { i32, ptr, ptr }
%struct.pm_list_t = type { i64, ptr, ptr }
%struct.pm_constant_pool_t = type { ptr, ptr, i32, i32 }
%struct.pm_newline_list_t = type { ptr, i64, i64, ptr }
%struct.pm_string_t = type { ptr, i64, i32 }

@.str.35 = private unnamed_addr constant [5 x i8] c"%li\0B\00", align 1

; Function Attrs: inlinehint nounwind sspstrong willreturn memory(none) uwtable
define internal zeroext i1 @RB_NIL_P(i64 noundef %0) #5 {
  %2 = alloca i64, align 8
  store i64 %0, ptr %2, align 8, !tbaa !7
  %3 = load i64, ptr %2, align 8, !tbaa !7
  %4 = icmp eq i64 %3, 4
  ret i1 %4
}

; Function Attrs: nounwind sspstrong uwtable
define internal i32 @parse_regexp_flags(ptr noundef %0) #0 {
  %2 = alloca ptr, align 8
  %3 = alloca i32, align 4
  store ptr %0, ptr %2, align 8, !tbaa !290
  call void @llvm.lifetime.start.p0(i64 4, ptr %3) #31
  store i32 0, ptr %3, align 4, !tbaa !41
  %4 = load ptr, ptr %2, align 8, !tbaa !290
  %5 = getelementptr inbounds nuw %struct.pm_node, ptr %4, i32 0, i32 1
  %6 = load i16, ptr %5, align 2, !tbaa !401
  %7 = zext i16 %6 to i32
  %8 = and i32 %7, 128
  %9 = icmp ne i32 %8, 0
  br i1 %9, label %10, label %13

10:                                               ; preds = %1
  %11 = load i32, ptr %3, align 4, !tbaa !41
  %12 = or i32 %11, 32
  store i32 %12, ptr %3, align 4, !tbaa !41
  br label %13

13:                                               ; preds = %10, %1
  %14 = load ptr, ptr %2, align 8, !tbaa !290
  %15 = getelementptr inbounds nuw %struct.pm_node, ptr %14, i32 0, i32 1
  %16 = load i16, ptr %15, align 2, !tbaa !401
  %17 = zext i16 %16 to i32
  %18 = and i32 %17, 64
  %19 = icmp ne i32 %18, 0
  br i1 %19, label %20, label %23

20:                                               ; preds = %13
  %21 = load i32, ptr %3, align 4, !tbaa !41
  %22 = or i32 %21, 528
  store i32 %22, ptr %3, align 4, !tbaa !41
  br label %23

23:                                               ; preds = %20, %13
  %24 = load ptr, ptr %2, align 8, !tbaa !290
  %25 = getelementptr inbounds nuw %struct.pm_node, ptr %24, i32 0, i32 1
  %26 = load i16, ptr %25, align 2, !tbaa !401
  %27 = zext i16 %26 to i32
  %28 = and i32 %27, 256
  %29 = icmp ne i32 %28, 0
  br i1 %29, label %30, label %33

30:                                               ; preds = %23
  %31 = load i32, ptr %3, align 4, !tbaa !41
  %32 = or i32 %31, 784
  store i32 %32, ptr %3, align 4, !tbaa !41
  br label %33

33:                                               ; preds = %30, %23
  %34 = load ptr, ptr %2, align 8, !tbaa !290
  %35 = getelementptr inbounds nuw %struct.pm_node, ptr %34, i32 0, i32 1
  %36 = load i16, ptr %35, align 2, !tbaa !401
  %37 = zext i16 %36 to i32
  %38 = and i32 %37, 512
  %39 = icmp ne i32 %38, 0
  br i1 %39, label %40, label %43

40:                                               ; preds = %33
  %41 = load i32, ptr %3, align 4, !tbaa !41
  %42 = or i32 %41, 1040
  store i32 %42, ptr %3, align 4, !tbaa !41
  br label %43

43:                                               ; preds = %40, %33
  %44 = load ptr, ptr %2, align 8, !tbaa !290
  %45 = getelementptr inbounds nuw %struct.pm_node, ptr %44, i32 0, i32 1
  %46 = load i16, ptr %45, align 2, !tbaa !401
  %47 = zext i16 %46 to i32
  %48 = and i32 %47, 4
  %49 = icmp ne i32 %48, 0
  br i1 %49, label %50, label %53

50:                                               ; preds = %43
  %51 = load i32, ptr %3, align 4, !tbaa !41
  %52 = or i32 %51, 1
  store i32 %52, ptr %3, align 4, !tbaa !41
  br label %53

53:                                               ; preds = %50, %43
  %54 = load ptr, ptr %2, align 8, !tbaa !290
  %55 = getelementptr inbounds nuw %struct.pm_node, ptr %54, i32 0, i32 1
  %56 = load i16, ptr %55, align 2, !tbaa !401
  %57 = zext i16 %56 to i32
  %58 = and i32 %57, 16
  %59 = icmp ne i32 %58, 0
  br i1 %59, label %60, label %63

60:                                               ; preds = %53
  %61 = load i32, ptr %3, align 4, !tbaa !41
  %62 = or i32 %61, 4
  store i32 %62, ptr %3, align 4, !tbaa !41
  br label %63

63:                                               ; preds = %60, %53
  %64 = load ptr, ptr %2, align 8, !tbaa !290
  %65 = getelementptr inbounds nuw %struct.pm_node, ptr %64, i32 0, i32 1
  %66 = load i16, ptr %65, align 2, !tbaa !401
  %67 = zext i16 %66 to i32
  %68 = and i32 %67, 8
  %69 = icmp ne i32 %68, 0
  br i1 %69, label %70, label %73

70:                                               ; preds = %63
  %71 = load i32, ptr %3, align 4, !tbaa !41
  %72 = or i32 %71, 2
  store i32 %72, ptr %3, align 4, !tbaa !41
  br label %73

73:                                               ; preds = %70, %63
  %74 = load i32, ptr %3, align 4, !tbaa !41
  call void @llvm.lifetime.end.p0(i64 4, ptr %3) #31
  ret i32 %74
}

; Function Attrs: nounwind sspstrong uwtable
define internal i32 @pm_node_line_number(ptr noundef %0, ptr noundef %1) #0 {
  %3 = alloca ptr, align 8
  %4 = alloca ptr, align 8
  store ptr %0, ptr %3, align 8, !tbaa !379
  store ptr %1, ptr %4, align 8, !tbaa !290
  %5 = load ptr, ptr %3, align 8, !tbaa !379
  %6 = getelementptr inbounds nuw %struct.pm_parser, ptr %5, i32 0, i32 28
  %7 = load ptr, ptr %4, align 8, !tbaa !290
  %8 = getelementptr inbounds nuw %struct.pm_node, ptr %7, i32 0, i32 3
  %9 = getelementptr inbounds nuw %struct.pm_location_t, ptr %8, i32 0, i32 0
  %10 = load ptr, ptr %9, align 8, !tbaa !301
  %11 = load ptr, ptr %3, align 8, !tbaa !379
  %12 = getelementptr inbounds nuw %struct.pm_parser, ptr %11, i32 0, i32 31
  %13 = load i32, ptr %12, align 8, !tbaa !380
  %14 = call i32 @pm_newline_list_line(ptr noundef %6, ptr noundef %10, i32 noundef %13)
  ret i32 %14
}

; Function Attrs: nounwind sspstrong uwtable
define internal i64 @parse_regexp(ptr noundef %0, ptr noundef %1, ptr noundef %2, i64 noundef %3) #0 {
  %5 = alloca i64, align 8
  %6 = alloca ptr, align 8
  %7 = alloca ptr, align 8
  %8 = alloca ptr, align 8
  %9 = alloca i64, align 8
  %10 = alloca i64, align 8
  %11 = alloca i32, align 4
  %12 = alloca i64, align 8
  %13 = alloca i64, align 8
  %14 = alloca i32, align 4
  store ptr %0, ptr %6, align 8, !tbaa !11
  store ptr %1, ptr %7, align 8, !tbaa !292
  store ptr %2, ptr %8, align 8, !tbaa !290
  store i64 %3, ptr %9, align 8, !tbaa !7
  call void @llvm.lifetime.start.p0(i64 8, ptr %10) #31
  %15 = call i64 @rb_errinfo()
  store i64 %15, ptr %10, align 8, !tbaa !7
  call void @llvm.lifetime.start.p0(i64 4, ptr %11) #31
  %16 = load ptr, ptr %7, align 8, !tbaa !292
  %17 = getelementptr inbounds nuw %struct.pm_scope_node, ptr %16, i32 0, i32 6
  %18 = load ptr, ptr %17, align 8, !tbaa !307
  %19 = load ptr, ptr %8, align 8, !tbaa !290
  %20 = call i32 @pm_node_line_number(ptr noundef %18, ptr noundef %19)
  store i32 %20, ptr %11, align 4, !tbaa !41
  call void @llvm.lifetime.start.p0(i64 8, ptr %12) #31
  %21 = load i64, ptr %9, align 8, !tbaa !7
  %22 = load ptr, ptr %8, align 8, !tbaa !290
  %23 = call i32 @parse_regexp_flags(ptr noundef %22)
  %24 = load ptr, ptr %7, align 8, !tbaa !292
  %25 = getelementptr inbounds nuw %struct.pm_scope_node, ptr %24, i32 0, i32 6
  %26 = load ptr, ptr %25, align 8, !tbaa !307
  %27 = getelementptr inbounds nuw %struct.pm_parser, ptr %26, i32 0, i32 26
  %28 = call ptr @pm_string_source(ptr noundef %27)
  %29 = load i32, ptr %11, align 4, !tbaa !41
  %30 = call i64 @rb_reg_compile(i64 noundef %21, i32 noundef %23, ptr noundef %28, i32 noundef %29)
  store i64 %30, ptr %12, align 8, !tbaa !7
  %31 = load i64, ptr %12, align 8, !tbaa !7
  %32 = call zeroext i1 @RB_NIL_P(i64 noundef %31) #32
  br i1 %32, label %33, label %41

33:                                               ; preds = %4
  call void @llvm.lifetime.start.p0(i64 8, ptr %13) #31
  %34 = call i64 @rb_errinfo()
  %35 = call i64 @rb_attr_get(i64 noundef %34, i64 noundef 3473)
  store i64 %35, ptr %13, align 8, !tbaa !7
  %36 = load i64, ptr %10, align 8, !tbaa !7
  call void @rb_set_errinfo(i64 noundef %36)
  %37 = load ptr, ptr %6, align 8, !tbaa !11
  %38 = load i32, ptr %11, align 4, !tbaa !41
  %39 = load i64, ptr %13, align 8, !tbaa !7
  %40 = call i64 (ptr, i32, ptr, ...) @parse_regexp_error(ptr noundef %37, i32 noundef %38, ptr noundef @.str.35, i64 noundef %39)
  store i64 4, ptr %5, align 8
  store i32 1, ptr %14, align 4
  call void @llvm.lifetime.end.p0(i64 8, ptr %13) #31
  br label %45

41:                                               ; preds = %4
  %42 = load i64, ptr %12, align 8, !tbaa !7
  %43 = call i64 @rb_obj_freeze(i64 noundef %42)
  %44 = load i64, ptr %12, align 8, !tbaa !7
  store i64 %44, ptr %5, align 8
  store i32 1, ptr %14, align 4
  br label %45

45:                                               ; preds = %41, %33
  call void @llvm.lifetime.end.p0(i64 8, ptr %12) #31
  call void @llvm.lifetime.end.p0(i64 4, ptr %11) #31
  call void @llvm.lifetime.end.p0(i64 8, ptr %10) #31
  %46 = load i64, ptr %5, align 8
  ret i64 %46
}