; Function Attrs: nounwind sspstrong uwtable
define internal fastcc range(i64 5, 4) i64 @parse_regexp(ptr noundef %0, ptr noundef readonly captures(none) %1, ptr noundef readonly captures(none) %2, i64 noundef %3) unnamed_addr #1 {
  %5 = tail call i64 @rb_errinfo() #38
  %6 = getelementptr inbounds nuw i8, ptr %1, i64 80
  %7 = load ptr, ptr %6, align 8, !tbaa !407
  %8 = getelementptr i8, ptr %2, i64 8
  %.val = load ptr, ptr %8, align 8, !tbaa !401
  %9 = getelementptr inbounds nuw i8, ptr %7, i64 600
  %10 = getelementptr inbounds nuw i8, ptr %7, i64 664
  %11 = load i32, ptr %10, align 8, !tbaa !456
  %12 = tail call i32 @pm_newline_list_line(ptr noundef nonnull %9, ptr noundef %.val, i32 noundef %11) #38
  %13 = getelementptr i8, ptr %2, i64 2
  %.val13 = load i16, ptr %13, align 2, !tbaa !478
  %14 = lshr i16 %.val13, 2
  %15 = and i16 %14, 32
  %spec.select.i = zext nneg i16 %15 to i32
  %16 = and i16 %.val13, 64
  %.not14.i = icmp eq i16 %16, 0
  %17 = or disjoint i32 %spec.select.i, 528
  %.1.i = select i1 %.not14.i, i32 %spec.select.i, i32 %17
  %18 = and i16 %.val13, 256
  %.not15.i = icmp eq i16 %18, 0
  %19 = or i32 %.1.i, 784
  %.2.i = select i1 %.not15.i, i32 %.1.i, i32 %19
  %20 = and i16 %.val13, 512
  %.not16.i = icmp eq i16 %20, 0
  %21 = or i32 %.2.i, 1040
  %.3.i = select i1 %.not16.i, i32 %.2.i, i32 %21
  %.52.i = and i16 %14, 7
  %.5.i = zext nneg i16 %.52.i to i32
  %.6.i = or i32 %.3.i, %.5.i
  %22 = load ptr, ptr %6, align 8, !tbaa !407
  %23 = getelementptr inbounds nuw i8, ptr %22, i64 552
  %24 = tail call ptr @pm_string_source(ptr noundef nonnull %23) #38
  %25 = tail call i64 @rb_reg_compile(i64 noundef %3, i32 noundef %.6.i, ptr noundef %24, i32 noundef %12) #38
  %26 = icmp eq i64 %25, 4
  br i1 %26, label %27, label %30

27:                                               ; preds = %4
  %28 = tail call i64 @rb_errinfo() #38
  %29 = tail call i64 @rb_attr_get(i64 noundef %28, i64 noundef 3473) #38
  tail call void @rb_set_errinfo(i64 noundef %5) #38
  tail call void (ptr, i32, ptr, ...) @parse_regexp_error(ptr noundef %0, i32 noundef %12, ptr nonnull poison, i64 noundef %29)
  unreachable

30:                                               ; preds = %4
  %31 = tail call i64 @rb_obj_freeze(i64 noundef %25) #38
  ret i64 %25
}